target datalayout = "e-m:e-p270:32:32-p271:32:32-p272:64:64-i64:64-i128:128-f80:128-n8:16:32:64-S128"
target triple = "x86_64-pc-linux-gnu"

%struct.FilterGraphThread = type { ptr, ptr, ptr, i32, i32, ptr, ptr }

; Function Attrs: nounwind uwtable
define internal void @fg_thread_uninit(ptr noundef %0) #0 {
  %2 = alloca ptr, align 8
  %3 = alloca ptr, align 8
  store ptr %0, ptr %2, align 8, !tbaa !322
  %4 = load ptr, ptr %2, align 8, !tbaa !322
  %5 = getelementptr inbounds nuw %struct.FilterGraphThread, ptr %4, i32 0, i32 2
  %6 = load ptr, ptr %5, align 8, !tbaa !325
  %7 = icmp ne ptr %6, null
  br i1 %7, label %8, label %19

8:                                                ; preds = %1
  call void @llvm.lifetime.start.p0(i64 8, ptr %3) #14
  br label %9

9:                                                ; preds = %15, %8
  %10 = load ptr, ptr %2, align 8, !tbaa !322
  %11 = getelementptr inbounds nuw %struct.FilterGraphThread, ptr %10, i32 0, i32 2
  %12 = load ptr, ptr %11, align 8, !tbaa !325
  %13 = call i32 @av_fifo_read(ptr noundef %12, ptr noundef %3, i64 noundef 1)
  %14 = icmp sge i32 %13, 0
  br i1 %14, label %15, label %16

15:                                               ; preds = %9
  call void @av_frame_free(ptr noundef %3)
  br label %9, !llvm.loop !385

16:                                               ; preds = %9
  %17 = load ptr, ptr %2, align 8, !tbaa !322
  %18 = getelementptr inbounds nuw %struct.FilterGraphThread, ptr %17, i32 0, i32 2
  call void @av_fifo_freep2(ptr noundef %18)
  call void @llvm.lifetime.end.p0(i64 8, ptr %3) #14
  br label %19

19:                                               ; preds = %16, %1
  %20 = load ptr, ptr %2, align 8, !tbaa !322
  %21 = getelementptr inbounds nuw %struct.FilterGraphThread, ptr %20, i32 0, i32 1
  call void @av_frame_free(ptr noundef %21)
  %22 = load ptr, ptr %2, align 8, !tbaa !322
  %23 = getelementptr inbounds nuw %struct.FilterGraphThread, ptr %22, i32 0, i32 5
  call void @av_freep(ptr noundef %23)
  %24 = load ptr, ptr %2, align 8, !tbaa !322
  %25 = getelementptr inbounds nuw %struct.FilterGraphThread, ptr %24, i32 0, i32 6
  call void @av_freep(ptr noundef %25)
  %26 = load ptr, ptr %2, align 8, !tbaa !322
  %27 = getelementptr inbounds nuw %struct.FilterGraphThread, ptr %26, i32 0, i32 0
  call void @avfilter_graph_free(ptr noundef %27)
  %28 = load ptr, ptr %2, align 8, !tbaa !322
  call void @llvm.memset.p0.i64(ptr align 8 %28, i8 0, i64 48, i1 false)
  ret void
}