; Function Attrs: nounwind uwtable
define internal fastcc void @fg_thread_uninit(ptr noundef nonnull %0) unnamed_addr #0 {
  %2 = alloca ptr, align 8
  %3 = getelementptr inbounds nuw i8, ptr %0, i64 16
  %4 = load ptr, ptr %3, align 8, !tbaa !203
  %.not = icmp eq ptr %4, null
  br i1 %.not, label %11, label %5

5:                                                ; preds = %1
  call void @llvm.lifetime.start.p0(i64 8, ptr nonnull %2) #17
  %6 = call i32 @av_fifo_read(ptr noundef nonnull %4, ptr noundef nonnull %2, i64 noundef 1) #17
  %7 = icmp sgt i32 %6, -1
  br i1 %7, label %.lr.ph, label %._crit_edge

.lr.ph:                                           ; preds = %5, %.lr.ph
  call void @av_frame_free(ptr noundef nonnull %2) #17
  %8 = load ptr, ptr %3, align 8, !tbaa !203
  %9 = call i32 @av_fifo_read(ptr noundef %8, ptr noundef nonnull %2, i64 noundef 1) #17
  %10 = icmp sgt i32 %9, -1
  br i1 %10, label %.lr.ph, label %._crit_edge, !llvm.loop !412

._crit_edge:                                      ; preds = %.lr.ph, %5
  call void @av_fifo_freep2(ptr noundef nonnull %3) #17
  call void @llvm.lifetime.end.p0(i64 8, ptr nonnull %2) #17
  br label %11

11:                                               ; preds = %._crit_edge, %1
  %12 = getelementptr inbounds nuw i8, ptr %0, i64 8
  call void @av_frame_free(ptr noundef nonnull %12) #17
  %13 = getelementptr inbounds nuw i8, ptr %0, i64 32
  call void @av_freep(ptr noundef nonnull %13) #17
  %14 = getelementptr inbounds nuw i8, ptr %0, i64 40
  call void @av_freep(ptr noundef nonnull %14) #17
  call void @avfilter_graph_free(ptr noundef nonnull %0) #17
  call void @llvm.memset.p0.i64(ptr noundef nonnull align 8 dereferenceable(48) %0, i8 0, i64 48, i1 false)
  ret void
}